Certificate:
    Data:
        Version: 3 (0x2)
        Serial Number: 2 (0x2)
    Signature Algorithm: sha256WithRSAEncryption
        Issuer: C=GB, ST=Midlothian, L=Edinburgh, O=Cryptokit, OU=Certificate Authority, CN=Cryptokit CA/name=EasyRSA/emailAddress=ca-admin@cryptok.it
        Validity
            Not Before: Dec 15 22:05:03 2015 GMT
            Not After : Dec 12 22:05:03 2025 GMT
        Subject: C=GB, ST=Midlothian, L=Edinburgh, O=Cryptokit, OU=Certificate Authority, CN=cryptokit-client-test2/name=EasyRSA/emailAddress=ca-admin@cryptok.it
        Subject Public Key Info:
            Public Key Algorithm: rsaEncryption
                Public-Key: (2048 bit)
                Modulus:
                    00:b0:fc:a3:12:f5:6a:06:bf:9c:4f:c3:eb:f6:90:
                    d5:4a:f8:69:8d:5b:40:0d:4a:fc:e4:81:ec:4e:c2:
                    54:e7:f9:33:cf:a1:78:ce:52:f6:15:22:fc:e2:b8:
                    d0:14:12:86:ce:d9:22:72:b7:04:7c:6f:a7:81:90:
                    af:32:36:ff:4f:9d:9e:6b:e6:db:91:90:fc:ea:b8:
                    94:90:dc:65:d0:f1:c5:60:3b:cc:7d:16:11:09:4b:
                    96:ec:71:39:11:a5:4c:c7:95:6d:8e:d7:65:98:57:
                    bd:77:7c:00:98:6a:80:a1:62:eb:04:00:d7:24:22:
                    62:97:a8:9f:20:0d:ab:51:79:2b:73:87:22:87:f9:
                    62:ee:f5:5b:c8:d3:bc:93:2b:8d:99:24:aa:5c:64:
                    83:74:41:40:85:5f:03:83:de:5b:5d:ed:90:18:f0:
                    fb:cd:99:90:b9:50:ea:d7:e6:55:85:9a:95:ec:f0:
                    8e:26:78:a1:0e:f7:11:5d:76:87:d0:8f:bd:64:63:
                    42:1c:00:d3:31:aa:4c:8f:38:3c:38:23:94:66:e5:
                    31:a4:1f:ab:66:b3:69:17:e7:85:c8:f9:07:31:24:
                    fd:3a:8f:ae:87:3a:43:11:25:22:3d:bc:35:35:c8:
                    f2:80:72:73:22:38:5f:09:38:8b:18:b2:88:43:fa:
                    1d:f9
                Exponent: 65537 (0x10001)
        X509v3 extensions:
            X509v3 Basic Constraints: 
                CA:FALSE
            Netscape Comment: 
                Easy-RSA Generated Certificate
            X509v3 Subject Key Identifier: 
                8C:82:30:B4:F2:F7:6A:D4:3D:7B:B4:ED:94:B8:3D:4E:B6:2A:FD:25
            X509v3 Authority Key Identifier: 
                keyid:E4:DB:F6:10:48:E0:00:69:9A:B3:7E:0F:B3:F3:44:AD:30:4E:0A:87
                DirName:/C=GB/ST=Midlothian/L=Edinburgh/O=Cryptokit/OU=Certificate Authority/CN=Cryptokit CA/name=EasyRSA/emailAddress=ca-admin@cryptok.it
                serial:9C:17:25:0E:03:F2:88:B1

            X509v3 Extended Key Usage: 
                TLS Web Client Authentication
            X509v3 Key Usage: 
                Digital Signature
            X509v3 Subject Alternative Name: 
                DNS:cryptokit-client-test2
    Signature Algorithm: sha256WithRSAEncryption
         85:dd:24:17:32:a9:2b:5f:32:92:98:ce:43:e5:42:de:bd:4c:
         21:b6:b9:89:97:4f:67:3a:18:a6:25:66:4e:0e:40:1b:22:08:
         5e:6b:12:c2:d2:32:4b:c5:2b:39:ff:bf:0c:7f:e8:86:91:30:
         25:96:e3:2c:24:63:a9:06:2a:3b:15:98:dd:62:f9:7a:63:5b:
         9b:9d:9c:0f:dc:bf:1e:74:d3:a9:0f:00:c8:27:25:64:d9:ea:
         6f:ac:b3:1c:9f:37:c3:51:41:0d:54:de:b9:1c:0d:1e:3f:de:
         e9:e6:05:b3:b2:00:e4:85:9a:a0:15:aa:99:5f:a7:4f:90:7a:
         2e:cd:ec:2f:e4:f8:64:00:80:00:41:8e:25:2e:9e:8c:80:65:
         ff:6f:6e:36:7a:e8:de:b9:e4:fa:67:01:51:1e:d6:50:81:da:
         09:49:e5:65:67:75:7c:a6:61:54:7d:40:ee:b0:08:35:bc:7f:
         6e:64:5f:0a:2c:cf:04:e7:ca:dc:ee:5e:d2:b3:a9:2d:42:ff:
         43:b8:93:5a:b8:78:ec:93:83:e2:e7:24:d6:37:3f:c6:94:4a:
         82:7f:0f:b3:e8:5a:a5:ac:ac:ba:1a:cf:66:70:10:ab:d3:11:
         c9:2b:62:e7:04:9a:22:f2:d3:f4:cf:56:3c:f5:29:2b:2e:1f:
         34:0d:88:f4
-----BEGIN CERTIFICATE-----
MIIFiDCCBHCgAwIBAgIBAjANBgkqhkiG9w0BAQsFADCBtzELMAkGA1UEBhMCR0Ix
EzARBgNVBAgTCk1pZGxvdGhpYW4xEjAQBgNVBAcTCUVkaW5idXJnaDESMBAGA1UE
ChMJQ3J5cHRva2l0MR4wHAYDVQQLExVDZXJ0aWZpY2F0ZSBBdXRob3JpdHkxFTAT
BgNVBAMTDENyeXB0b2tpdCBDQTEQMA4GA1UEKRMHRWFzeVJTQTEiMCAGCSqGSIb3
DQEJARYTY2EtYWRtaW5AY3J5cHRvay5pdDAeFw0xNTEyMTUyMjA1MDNaFw0yNTEy
MTIyMjA1MDNaMIHBMQswCQYDVQQGEwJHQjETMBEGA1UECBMKTWlkbG90aGlhbjES
MBAGA1UEBxMJRWRpbmJ1cmdoMRIwEAYDVQQKEwlDcnlwdG9raXQxHjAcBgNVBAsT
FUNlcnRpZmljYXRlIEF1dGhvcml0eTEfMB0GA1UEAxMWY3J5cHRva2l0LWNsaWVu
dC10ZXN0MjEQMA4GA1UEKRMHRWFzeVJTQTEiMCAGCSqGSIb3DQEJARYTY2EtYWRt
aW5AY3J5cHRvay5pdDCCASIwDQYJKoZIhvcNAQEBBQADggEPADCCAQoCggEBALD8
oxL1aga/nE/D6/aQ1Ur4aY1bQA1K/OSB7E7CVOf5M8+heM5S9hUi/OK40BQShs7Z
InK3BHxvp4GQrzI2/0+dnmvm25GQ/Oq4lJDcZdDxxWA7zH0WEQlLluxxORGlTMeV
bY7XZZhXvXd8AJhqgKFi6wQA1yQiYpeonyANq1F5K3OHIof5Yu71W8jTvJMrjZkk
qlxkg3RBQIVfA4PeW13tkBjw+82ZkLlQ6tfmVYWalezwjiZ4oQ73EV12h9CPvWRj
QhwA0zGqTI84PDgjlGblMaQfq2azaRfnhcj5BzEk/TqProc6QxElIj28NTXI8oBy
cyI4Xwk4ixiyiEP6HfkCAwEAAaOCAZEwggGNMAkGA1UdEwQCMAAwLQYJYIZIAYb4
QgENBCAWHkVhc3ktUlNBIEdlbmVyYXRlZCBDZXJ0aWZpY2F0ZTAdBgNVHQ4EFgQU
jIIwtPL3atQ9e7TtlLg9TrYq/SUwgewGA1UdIwSB5DCB4YAU5Nv2EEjgAGmas34P
s/NErTBOCoehgb2kgbowgbcxCzAJBgNVBAYTAkdCMRMwEQYDVQQIEwpNaWRsb3Ro
aWFuMRIwEAYDVQQHEwlFZGluYnVyZ2gxEjAQBgNVBAoTCUNyeXB0b2tpdDEeMBwG
A1UECxMVQ2VydGlmaWNhdGUgQXV0aG9yaXR5MRUwEwYDVQQDEwxDcnlwdG9raXQg
Q0ExEDAOBgNVBCkTB0Vhc3lSU0ExIjAgBgkqhkiG9w0BCQEWE2NhLWFkbWluQGNy
eXB0b2suaXSCCQCcFyUOA/KIsTATBgNVHSUEDDAKBggrBgEFBQcDAjALBgNVHQ8E
BAMCB4AwIQYDVR0RBBowGIIWY3J5cHRva2l0LWNsaWVudC10ZXN0MjANBgkqhkiG
9w0BAQsFAAOCAQEAhd0kFzKpK18ykpjOQ+VC3r1MIba5iZdPZzoYpiVmTg5AGyII
XmsSwtIyS8UrOf+/DH/ohpEwJZbjLCRjqQYqOxWY3WL5emNbm52cD9y/HnTTqQ8A
yCclZNnqb6yzHJ83w1FBDVTeuRwNHj/e6eYFs7IA5IWaoBWqmV+nT5B6Ls3sL+T4
ZACAAEGOJS6ejIBl/29uNnro3rnk+mcBUR7WUIHaCUnlZWd1fKZhVH1A7rAINbx/
bmRfCizPBOfK3O5e0rOpLUL/Q7iTWrh47JOD4uck1jc/xpRKgn8Ps+hapaysuhrP
ZnAQq9MRySti5wSaIvLT9M9WPPUpKy4fNA2I9A==
-----END CERTIFICATE-----
